target datalayout = "e-m:e-p270:32:32-p271:32:32-p272:64:64-i64:64-i128:128-f80:128-n8:16:32:64-S128"
target triple = "x86_64-pc-linux-gnu"

%struct.TCGAtomAlign = type { i32, i32 }

@tcg_ctx = dso_local thread_local global ptr null, align 8
@cpuinfo = external global i32, align 4
@.str.4 = private unnamed_addr constant [18 x i8] c"../qemu/tcg/tcg.c\00", align 1
@__func__.atom_and_align_for_opc = private unnamed_addr constant [23 x i8] c"atom_and_align_for_opc\00", align 1

; Function Attrs: inlinehint nounwind sspstrong uwtable
define internal i32 @memop_alignment_bits(i32 noundef %0) #3 {
  %2 = alloca i32, align 4
  %3 = alloca i32, align 4
  store i32 %0, ptr %2, align 4
  call void @llvm.lifetime.start.p0(i64 4, ptr %3) #19
  %4 = load i32, ptr %2, align 4
  %5 = and i32 %4, 224
  store i32 %5, ptr %3, align 4
  %6 = load i32, ptr %3, align 4
  %7 = icmp eq i32 %6, 0
  br i1 %7, label %8, label %9

8:                                                ; preds = %1
  store i32 0, ptr %3, align 4
  br label %19

9:                                                ; preds = %1
  %10 = load i32, ptr %3, align 4
  %11 = icmp eq i32 %10, 224
  br i1 %11, label %12, label %15

12:                                               ; preds = %9
  %13 = load i32, ptr %2, align 4
  %14 = and i32 %13, 7
  store i32 %14, ptr %3, align 4
  br label %18

15:                                               ; preds = %9
  %16 = load i32, ptr %3, align 4
  %17 = lshr i32 %16, 5
  store i32 %17, ptr %3, align 4
  br label %18

18:                                               ; preds = %15, %12
  br label %19

19:                                               ; preds = %18, %8
  %20 = load i32, ptr %3, align 4
  call void @llvm.lifetime.end.p0(i64 4, ptr %3) #19
  ret i32 %20
}

; Function Attrs: nounwind sspstrong uwtable
define internal i64 @atom_and_align_for_opc(ptr noundef %0, i32 noundef %1, i32 noundef %2, i1 noundef zeroext %3) #0 {
  %5 = alloca %struct.TCGAtomAlign, align 4
  %6 = alloca ptr, align 8
  %7 = alloca i32, align 4
  %8 = alloca i32, align 4
  %9 = alloca i8, align 1
  %10 = alloca i32, align 4
  %11 = alloca i32, align 4
  %12 = alloca i32, align 4
  %13 = alloca i32, align 4
  %14 = alloca i32, align 4
  %15 = alloca i32, align 4
  %16 = alloca i32, align 4
  %17 = alloca i32, align 4
  %18 = alloca i32, align 4
  %19 = alloca i32, align 4
  %20 = alloca i32, align 4
  %21 = alloca i32, align 4
  %22 = alloca i32, align 4
  %23 = alloca i32, align 4
  %24 = alloca i32, align 4
  %25 = alloca i32, align 4
  %26 = alloca i32, align 4
  store ptr %0, ptr %6, align 8
  store i32 %1, ptr %7, align 4
  store i32 %2, ptr %8, align 4
  %27 = zext i1 %3 to i8
  store i8 %27, ptr %9, align 1
  call void @llvm.lifetime.start.p0(i64 4, ptr %10) #19
  %28 = load i32, ptr %7, align 4
  %29 = call i32 @memop_alignment_bits(i32 noundef %28)
  store i32 %29, ptr %10, align 4
  call void @llvm.lifetime.start.p0(i64 4, ptr %11) #19
  %30 = load i32, ptr %7, align 4
  %31 = and i32 %30, 7
  store i32 %31, ptr %11, align 4
  call void @llvm.lifetime.start.p0(i64 4, ptr %12) #19
  %32 = load i32, ptr %11, align 4
  %33 = icmp ne i32 %32, 0
  br i1 %33, label %34, label %37

34:                                               ; preds = %4
  %35 = load i32, ptr %11, align 4
  %36 = sub i32 %35, 1
  br label %38

37:                                               ; preds = %4
  br label %38

38:                                               ; preds = %37, %34
  %39 = phi i32 [ %36, %34 ], [ 0, %37 ]
  store i32 %39, ptr %12, align 4
  call void @llvm.lifetime.start.p0(i64 4, ptr %13) #19
  %40 = load i32, ptr %7, align 4
  %41 = and i32 %40, 1792
  store i32 %41, ptr %13, align 4
  call void @llvm.lifetime.start.p0(i64 4, ptr %14) #19
  store i32 0, ptr %14, align 4, !annotation !4
  %42 = load i32, ptr %13, align 4
  switch i32 %42, label %127 [
    i32 1280, label %43
    i32 0, label %44
    i32 256, label %46
    i32 512, label %48
    i32 768, label %71
    i32 1024, label %92
  ]

43:                                               ; preds = %38
  store i32 0, ptr %14, align 4
  br label %131

44:                                               ; preds = %38
  %45 = load i32, ptr %11, align 4
  store i32 %45, ptr %14, align 4
  br label %131

46:                                               ; preds = %38
  %47 = load i32, ptr %12, align 4
  store i32 %47, ptr %14, align 4
  br label %131

48:                                               ; preds = %38
  %49 = load i32, ptr %11, align 4
  store i32 %49, ptr %14, align 4
  %50 = load i32, ptr %11, align 4
  %51 = icmp eq i32 %50, 4
  br i1 %51, label %52, label %53

52:                                               ; preds = %48
  br label %70

53:                                               ; preds = %48
  %54 = load i32, ptr %8, align 4
  %55 = icmp ne i32 %54, 512
  br i1 %55, label %56, label %69

56:                                               ; preds = %53
  call void @llvm.lifetime.start.p0(i64 4, ptr %15) #19
  %57 = load i32, ptr %10, align 4
  store i32 %57, ptr %15, align 4
  call void @llvm.lifetime.start.p0(i64 4, ptr %16) #19
  %58 = load i32, ptr %11, align 4
  store i32 %58, ptr %16, align 4
  %59 = load i32, ptr %15, align 4
  %60 = load i32, ptr %16, align 4
  %61 = icmp ugt i32 %59, %60
  br i1 %61, label %62, label %64

62:                                               ; preds = %56
  %63 = load i32, ptr %15, align 4
  br label %66

64:                                               ; preds = %56
  %65 = load i32, ptr %16, align 4
  br label %66

66:                                               ; preds = %64, %62
  %67 = phi i32 [ %63, %62 ], [ %65, %64 ]
  store i32 %67, ptr %17, align 4
  call void @llvm.lifetime.end.p0(i64 4, ptr %16) #19
  call void @llvm.lifetime.end.p0(i64 4, ptr %15) #19
  %68 = load i32, ptr %17, align 4
  store i32 %68, ptr %10, align 4
  br label %69

69:                                               ; preds = %66, %53
  br label %70

70:                                               ; preds = %69, %52
  br label %131

71:                                               ; preds = %38
  %72 = load i32, ptr %11, align 4
  store i32 %72, ptr %14, align 4
  %73 = load i32, ptr %8, align 4
  %74 = icmp ne i32 %73, 512
  br i1 %74, label %75, label %91

75:                                               ; preds = %71
  %76 = load i8, ptr %9, align 1, !range !5, !noundef !6
  %77 = trunc i8 %76 to i1
  br i1 %77, label %78, label %91

78:                                               ; preds = %75
  call void @llvm.lifetime.start.p0(i64 4, ptr %18) #19
  %79 = load i32, ptr %10, align 4
  store i32 %79, ptr %18, align 4
  call void @llvm.lifetime.start.p0(i64 4, ptr %19) #19
  %80 = load i32, ptr %12, align 4
  store i32 %80, ptr %19, align 4
  %81 = load i32, ptr %18, align 4
  %82 = load i32, ptr %19, align 4
  %83 = icmp ugt i32 %81, %82
  br i1 %83, label %84, label %86

84:                                               ; preds = %78
  %85 = load i32, ptr %18, align 4
  br label %88

86:                                               ; preds = %78
  %87 = load i32, ptr %19, align 4
  br label %88

88:                                               ; preds = %86, %84
  %89 = phi i32 [ %85, %84 ], [ %87, %86 ]
  store i32 %89, ptr %20, align 4
  call void @llvm.lifetime.end.p0(i64 4, ptr %19) #19
  call void @llvm.lifetime.end.p0(i64 4, ptr %18) #19
  %90 = load i32, ptr %20, align 4
  store i32 %90, ptr %10, align 4
  br label %91

91:                                               ; preds = %88, %75, %71
  br label %131

92:                                               ; preds = %38
  %93 = load i32, ptr %11, align 4
  store i32 %93, ptr %14, align 4
  %94 = load i32, ptr %8, align 4
  %95 = icmp ne i32 %94, 1024
  br i1 %95, label %96, label %126

96:                                               ; preds = %92
  %97 = load i8, ptr %9, align 1, !range !5, !noundef !6
  %98 = trunc i8 %97 to i1
  br i1 %98, label %99, label %112

99:                                               ; preds = %96
  call void @llvm.lifetime.start.p0(i64 4, ptr %21) #19
  %100 = load i32, ptr %10, align 4
  store i32 %100, ptr %21, align 4
  call void @llvm.lifetime.start.p0(i64 4, ptr %22) #19
  %101 = load i32, ptr %12, align 4
  store i32 %101, ptr %22, align 4
  %102 = load i32, ptr %21, align 4
  %103 = load i32, ptr %22, align 4
  %104 = icmp ugt i32 %102, %103
  br i1 %104, label %105, label %107

105:                                              ; preds = %99
  %106 = load i32, ptr %21, align 4
  br label %109

107:                                              ; preds = %99
  %108 = load i32, ptr %22, align 4
  br label %109

109:                                              ; preds = %107, %105
  %110 = phi i32 [ %106, %105 ], [ %108, %107 ]
  store i32 %110, ptr %23, align 4
  call void @llvm.lifetime.end.p0(i64 4, ptr %22) #19
  call void @llvm.lifetime.end.p0(i64 4, ptr %21) #19
  %111 = load i32, ptr %23, align 4
  store i32 %111, ptr %10, align 4
  br label %125

112:                                              ; preds = %96
  call void @llvm.lifetime.start.p0(i64 4, ptr %24) #19
  %113 = load i32, ptr %10, align 4
  store i32 %113, ptr %24, align 4
  call void @llvm.lifetime.start.p0(i64 4, ptr %25) #19
  %114 = load i32, ptr %11, align 4
  store i32 %114, ptr %25, align 4
  %115 = load i32, ptr %24, align 4
  %116 = load i32, ptr %25, align 4
  %117 = icmp ugt i32 %115, %116
  br i1 %117, label %118, label %120

118:                                              ; preds = %112
  %119 = load i32, ptr %24, align 4
  br label %122

120:                                              ; preds = %112
  %121 = load i32, ptr %25, align 4
  br label %122

122:                                              ; preds = %120, %118
  %123 = phi i32 [ %119, %118 ], [ %121, %120 ]
  store i32 %123, ptr %26, align 4
  call void @llvm.lifetime.end.p0(i64 4, ptr %25) #19
  call void @llvm.lifetime.end.p0(i64 4, ptr %24) #19
  %124 = load i32, ptr %26, align 4
  store i32 %124, ptr %10, align 4
  br label %125

125:                                              ; preds = %122, %109
  br label %126

126:                                              ; preds = %125, %92
  br label %131

127:                                              ; preds = %38
  br label %128

128:                                              ; preds = %127
  call void @g_assertion_message_expr(ptr noundef null, ptr noundef @.str.4, i32 noundef 5793, ptr noundef @__func__.atom_and_align_for_opc, ptr noundef null) #20
  unreachable

129:                                              ; No predecessors!
  br label %130

130:                                              ; preds = %129
  br label %131

131:                                              ; preds = %130, %126, %91, %70, %46, %44, %43
  %132 = getelementptr inbounds nuw %struct.TCGAtomAlign, ptr %5, i32 0, i32 0
  %133 = load i32, ptr %14, align 4
  store i32 %133, ptr %132, align 4
  %134 = getelementptr inbounds nuw %struct.TCGAtomAlign, ptr %5, i32 0, i32 1
  %135 = load i32, ptr %10, align 4
  store i32 %135, ptr %134, align 4
  call void @llvm.lifetime.end.p0(i64 4, ptr %14) #19
  call void @llvm.lifetime.end.p0(i64 4, ptr %13) #19
  call void @llvm.lifetime.end.p0(i64 4, ptr %12) #19
  call void @llvm.lifetime.end.p0(i64 4, ptr %11) #19
  call void @llvm.lifetime.end.p0(i64 4, ptr %10) #19
  %136 = load i64, ptr %5, align 4
  ret i64 %136
}

; Function Attrs: nounwind sspstrong uwtable
define dso_local zeroext i1 @tcg_target_has_memory_bswap(i32 noundef %0) #0 {
  %2 = alloca i1, align 1
  %3 = alloca i32, align 4
  %4 = alloca %struct.TCGAtomAlign, align 4
  %5 = alloca i32, align 4
  %6 = alloca %struct.TCGAtomAlign, align 4
  store i32 %0, ptr %3, align 4
  call void @llvm.lifetime.start.p0(i64 8, ptr %4) #19
  call void @llvm.memset.p0.i64(ptr align 4 %4, i8 0, i64 8, i1 false), !annotation !4
  %7 = load i32, ptr @cpuinfo, align 4
  %8 = and i32 %7, 4
  %9 = icmp ne i32 %8, 0
  br i1 %9, label %11, label %10

10:                                               ; preds = %1
  store i1 false, ptr %2, align 1
  store i32 1, ptr %5, align 4
  br label %24

11:                                               ; preds = %1
  %12 = load i32, ptr %3, align 4
  %13 = and i32 %12, 7
  %14 = icmp ult i32 %13, 4
  br i1 %14, label %15, label %16

15:                                               ; preds = %11
  store i1 true, ptr %2, align 1
  store i32 1, ptr %5, align 4
  br label %24

16:                                               ; preds = %11
  call void @llvm.lifetime.start.p0(i64 8, ptr %6) #19
  %17 = call align 8 ptr @llvm.threadlocal.address.p0(ptr align 8 @tcg_ctx)
  %18 = load ptr, ptr %17, align 8
  %19 = load i32, ptr %3, align 4
  %20 = call i64 @atom_and_align_for_opc(ptr noundef %18, i32 noundef %19, i32 noundef 0, i1 noundef zeroext true)
  store i64 %20, ptr %6, align 4
  call void @llvm.memcpy.p0.p0.i64(ptr align 4 %4, ptr align 4 %6, i64 8, i1 false)
  call void @llvm.lifetime.end.p0(i64 8, ptr %6) #19
  %21 = getelementptr inbounds nuw %struct.TCGAtomAlign, ptr %4, i32 0, i32 0
  %22 = load i32, ptr %21, align 4
  %23 = icmp ult i32 %22, 4
  store i1 %23, ptr %2, align 1
  store i32 1, ptr %5, align 4
  br label %24

24:                                               ; preds = %16, %15, %10
  call void @llvm.lifetime.end.p0(i64 8, ptr %4) #19
  %25 = load i1, ptr %2, align 1
  ret i1 %25
}