; Function Attrs: nounwind sspstrong uwtable
define dso_local zeroext i1 @tcg_target_has_memory_bswap(i32 noundef %0) local_unnamed_addr #0 {
  %2 = load i32, ptr @cpuinfo, align 4
  %3 = and i32 %2, 4
  %.not = icmp eq i32 %3, 0
  br i1 %.not, label %15, label %4

4:                                                ; preds = %1
  %5 = and i32 %0, 4
  %.not3.not = icmp eq i32 %5, 0
  br i1 %.not3.not, label %15, label %memop_alignment_bits.exit.i

memop_alignment_bits.exit.i:                      ; preds = %4
  %6 = and i32 %0, 7
  %7 = lshr i32 %0, 8
  %8 = and i32 %7, 7
  switch i32 %8, label %12 [
    i32 5, label %atom_and_align_for_opc.exit
    i32 0, label %9
    i32 1, label %10
    i32 2, label %9
    i32 3, label %9
    i32 4, label %9
  ]

9:                                                ; preds = %memop_alignment_bits.exit.i, %memop_alignment_bits.exit.i, %memop_alignment_bits.exit.i, %memop_alignment_bits.exit.i
  br label %atom_and_align_for_opc.exit

10:                                               ; preds = %memop_alignment_bits.exit.i
  %11 = add nsw i32 %6, -1
  br label %atom_and_align_for_opc.exit

12:                                               ; preds = %memop_alignment_bits.exit.i
  tail call void @g_assertion_message_expr(ptr noundef null, ptr noundef nonnull @.str.4, i32 noundef 5793, ptr noundef nonnull @__func__.atom_and_align_for_opc, ptr noundef null) #31
  unreachable

atom_and_align_for_opc.exit:                      ; preds = %memop_alignment_bits.exit.i, %9, %10
  %.048.i = phi i32 [ %11, %10 ], [ %6, %9 ], [ 0, %memop_alignment_bits.exit.i ]
  %13 = and i32 %.048.i, 2147483644
  %14 = icmp eq i32 %13, 0
  br label %15

15:                                               ; preds = %4, %1, %atom_and_align_for_opc.exit
  %.0 = phi i1 [ %14, %atom_and_align_for_opc.exit ], [ false, %1 ], [ true, %4 ]
  ret i1 %.0
}